target datalayout = "e-m:e-p270:32:32-p271:32:32-p272:64:64-i64:64-i128:128-f80:128-n8:16:32:64-S128"
target triple = "x86_64-pc-linux-gnu"

%struct.evthread_lock_callbacks = type { i32, i32, ptr, ptr, ptr, ptr }
%struct.arc4_stream = type { i8, i8, [256 x i8] }

@arc4rand_lock = internal global ptr null, align 8
@evthread_lock_fns_ = external global %struct.evthread_lock_callbacks, align 8
@rs_initialized = internal global i32 0, align 4
@arc4_count = internal global i32 0, align 4
@rs = internal global %struct.arc4_stream zeroinitializer, align 1
@arc4_stir_pid = internal global i32 0, align 4

; Function Attrs: inlinehint nounwind uwtable
define internal zeroext i8 @arc4_getbyte() #3 {
  %1 = alloca i8, align 1
  %2 = alloca i8, align 1
  call void @llvm.lifetime.start.p0(i64 1, ptr %1) #6
  call void @llvm.lifetime.start.p0(i64 1, ptr %2) #6
  %3 = load i8, ptr @rs, align 1
  %4 = zext i8 %3 to i32
  %5 = add nsw i32 %4, 1
  %6 = trunc i32 %5 to i8
  store i8 %6, ptr @rs, align 1
  %7 = load i8, ptr @rs, align 1
  %8 = zext i8 %7 to i64
  %9 = getelementptr inbounds nuw [256 x i8], ptr getelementptr inbounds nuw (%struct.arc4_stream, ptr @rs, i32 0, i32 2), i64 0, i64 %8
  %10 = load i8, ptr %9, align 1
  store i8 %10, ptr %1, align 1
  %11 = load i8, ptr getelementptr inbounds nuw (%struct.arc4_stream, ptr @rs, i32 0, i32 1), align 1
  %12 = zext i8 %11 to i32
  %13 = load i8, ptr %1, align 1
  %14 = zext i8 %13 to i32
  %15 = add nsw i32 %12, %14
  %16 = trunc i32 %15 to i8
  store i8 %16, ptr getelementptr inbounds nuw (%struct.arc4_stream, ptr @rs, i32 0, i32 1), align 1
  %17 = load i8, ptr getelementptr inbounds nuw (%struct.arc4_stream, ptr @rs, i32 0, i32 1), align 1
  %18 = zext i8 %17 to i64
  %19 = getelementptr inbounds nuw [256 x i8], ptr getelementptr inbounds nuw (%struct.arc4_stream, ptr @rs, i32 0, i32 2), i64 0, i64 %18
  %20 = load i8, ptr %19, align 1
  store i8 %20, ptr %2, align 1
  %21 = load i8, ptr %2, align 1
  %22 = load i8, ptr @rs, align 1
  %23 = zext i8 %22 to i64
  %24 = getelementptr inbounds nuw [256 x i8], ptr getelementptr inbounds nuw (%struct.arc4_stream, ptr @rs, i32 0, i32 2), i64 0, i64 %23
  store i8 %21, ptr %24, align 1
  %25 = load i8, ptr %1, align 1
  %26 = load i8, ptr getelementptr inbounds nuw (%struct.arc4_stream, ptr @rs, i32 0, i32 1), align 1
  %27 = zext i8 %26 to i64
  %28 = getelementptr inbounds nuw [256 x i8], ptr getelementptr inbounds nuw (%struct.arc4_stream, ptr @rs, i32 0, i32 2), i64 0, i64 %27
  store i8 %25, ptr %28, align 1
  %29 = load i8, ptr %1, align 1
  %30 = zext i8 %29 to i32
  %31 = load i8, ptr %2, align 1
  %32 = zext i8 %31 to i32
  %33 = add nsw i32 %30, %32
  %34 = and i32 %33, 255
  %35 = sext i32 %34 to i64
  %36 = getelementptr inbounds [256 x i8], ptr getelementptr inbounds nuw (%struct.arc4_stream, ptr @rs, i32 0, i32 2), i64 0, i64 %35
  %37 = load i8, ptr %36, align 1
  call void @llvm.lifetime.end.p0(i64 1, ptr %2) #6
  call void @llvm.lifetime.end.p0(i64 1, ptr %1) #6
  ret i8 %37
}

; Function Attrs: nounwind uwtable
define internal void @arc4_stir_if_needed() #0 {
  %1 = alloca i32, align 4
  call void @llvm.lifetime.start.p0(i64 4, ptr %1) #6
  %2 = call i32 @getpid() #6
  store i32 %2, ptr %1, align 4
  %3 = load i32, ptr @arc4_count, align 4
  %4 = icmp sle i32 %3, 0
  br i1 %4, label %12, label %5

5:                                                ; preds = %0
  %6 = load i32, ptr @rs_initialized, align 4
  %7 = icmp ne i32 %6, 0
  br i1 %7, label %8, label %12

8:                                                ; preds = %5
  %9 = load i32, ptr @arc4_stir_pid, align 4
  %10 = load i32, ptr %1, align 4
  %11 = icmp ne i32 %9, %10
  br i1 %11, label %12, label %15

12:                                               ; preds = %8, %5, %0
  %13 = load i32, ptr %1, align 4
  store i32 %13, ptr @arc4_stir_pid, align 4
  %14 = call i32 @arc4_stir()
  br label %15

15:                                               ; preds = %12, %8
  call void @llvm.lifetime.end.p0(i64 4, ptr %1) #6
  ret void
}

; Function Attrs: nounwind uwtable
define internal void @arc4random_buf(ptr noundef %0, i64 noundef %1) #0 {
  %3 = alloca ptr, align 8
  %4 = alloca i64, align 8
  %5 = alloca ptr, align 8
  store ptr %0, ptr %3, align 8
  store i64 %1, ptr %4, align 8
  call void @llvm.lifetime.start.p0(i64 8, ptr %5) #6
  %6 = load ptr, ptr %3, align 8
  store ptr %6, ptr %5, align 8
  br label %7

7:                                                ; preds = %2
  %8 = load ptr, ptr @arc4rand_lock, align 8
  %9 = icmp ne ptr %8, null
  br i1 %9, label %10, label %14

10:                                               ; preds = %7
  %11 = load ptr, ptr getelementptr inbounds nuw (%struct.evthread_lock_callbacks, ptr @evthread_lock_fns_, i32 0, i32 4), align 8
  %12 = load ptr, ptr @arc4rand_lock, align 8
  %13 = call i32 %11(i32 noundef 0, ptr noundef %12)
  br label %14

14:                                               ; preds = %10, %7
  br label %15

15:                                               ; preds = %14
  br label %16

16:                                               ; preds = %15
  call void @arc4_stir_if_needed()
  br label %17

17:                                               ; preds = %27, %16
  %18 = load i64, ptr %4, align 8
  %19 = add i64 %18, -1
  store i64 %19, ptr %4, align 8
  %20 = icmp ne i64 %18, 0
  br i1 %20, label %21, label %32

21:                                               ; preds = %17
  %22 = load i32, ptr @arc4_count, align 4
  %23 = add nsw i32 %22, -1
  store i32 %23, ptr @arc4_count, align 4
  %24 = icmp sle i32 %23, 0
  br i1 %24, label %25, label %27

25:                                               ; preds = %21
  %26 = call i32 @arc4_stir()
  br label %27

27:                                               ; preds = %25, %21
  %28 = call zeroext i8 @arc4_getbyte()
  %29 = load ptr, ptr %5, align 8
  %30 = load i64, ptr %4, align 8
  %31 = getelementptr inbounds nuw i8, ptr %29, i64 %30
  store i8 %28, ptr %31, align 1
  br label %17, !llvm.loop !13

32:                                               ; preds = %17
  br label %33

33:                                               ; preds = %32
  %34 = load ptr, ptr @arc4rand_lock, align 8
  %35 = icmp ne ptr %34, null
  br i1 %35, label %36, label %40

36:                                               ; preds = %33
  %37 = load ptr, ptr getelementptr inbounds nuw (%struct.evthread_lock_callbacks, ptr @evthread_lock_fns_, i32 0, i32 5), align 8
  %38 = load ptr, ptr @arc4rand_lock, align 8
  %39 = call i32 %37(i32 noundef 0, ptr noundef %38)
  br label %40

40:                                               ; preds = %36, %33
  br label %41

41:                                               ; preds = %40
  br label %42

42:                                               ; preds = %41
  call void @llvm.lifetime.end.p0(i64 8, ptr %5) #6
  ret void
}

; Function Attrs: nounwind uwtable
define internal void @ev_arc4random_buf(ptr noundef %0, i64 noundef %1) #0 {
  %3 = alloca ptr, align 8
  %4 = alloca i64, align 8
  store ptr %0, ptr %3, align 8
  store i64 %1, ptr %4, align 8
  %5 = load ptr, ptr %3, align 8
  %6 = load i64, ptr %4, align 8
  call void @arc4random_buf(ptr noundef %5, i64 noundef %6)
  ret void
}

; Function Attrs: nounwind uwtable
define void @evutil_secure_rng_get_bytes(ptr noundef %0, i64 noundef %1) #0 {
  %3 = alloca ptr, align 8
  %4 = alloca i64, align 8
  store ptr %0, ptr %3, align 8
  store i64 %1, ptr %4, align 8
  %5 = load ptr, ptr %3, align 8
  %6 = load i64, ptr %4, align 8
  call void @ev_arc4random_buf(ptr noundef %5, i64 noundef %6)
  ret void
}