; Function Attrs: nounwind uwtable
define void @evutil_secure_rng_get_bytes(ptr noundef writeonly captures(none) %0, i64 noundef %1) local_unnamed_addr #0 {
  %3 = load ptr, ptr @arc4rand_lock, align 8
  %.not.i.i = icmp eq ptr %3, null
  br i1 %.not.i.i, label %7, label %4

4:                                                ; preds = %2
  %5 = load ptr, ptr getelementptr inbounds nuw (i8, ptr @evthread_lock_fns_, i64 24), align 8
  %6 = tail call i32 %5(i32 noundef 0, ptr noundef nonnull %3) #7
  br label %7

7:                                                ; preds = %4, %2
  %8 = tail call i32 @getpid() #7
  %9 = load i32, ptr @arc4_count, align 4
  %10 = icmp sgt i32 %9, 0
  %.b.i.i.i = load i1, ptr @rs_initialized, align 4
  %or.cond.i.i.i = select i1 %10, i1 %.b.i.i.i, i1 false
  %11 = load i32, ptr @arc4_stir_pid, align 4
  %.not.i.i.i = icmp eq i32 %11, %8
  %or.cond3.i.i.i = select i1 %or.cond.i.i.i, i1 %.not.i.i.i, i1 false
  br i1 %or.cond3.i.i.i, label %arc4_stir_if_needed.exit.i.i, label %12

12:                                               ; preds = %7
  store i32 %8, ptr @arc4_stir_pid, align 4
  %13 = tail call fastcc i32 @arc4_stir()
  br label %arc4_stir_if_needed.exit.i.i

arc4_stir_if_needed.exit.i.i:                     ; preds = %12, %7
  %.not57.i.i = icmp eq i64 %1, 0
  br i1 %.not57.i.i, label %._crit_edge.i.i, label %.lr.ph.preheader.i.i

.lr.ph.preheader.i.i:                             ; preds = %arc4_stir_if_needed.exit.i.i
  %.pre8.i.i = load i32, ptr @arc4_count, align 4
  br label %.lr.ph.i.i

.lr.ph.i.i:                                       ; preds = %20, %.lr.ph.preheader.i.i
  %14 = phi i32 [ %21, %20 ], [ %.pre8.i.i, %.lr.ph.preheader.i.i ]
  %.in.i.i = phi i64 [ %15, %20 ], [ %1, %.lr.ph.preheader.i.i ]
  %15 = add i64 %.in.i.i, -1
  %16 = add nsw i32 %14, -1
  store i32 %16, ptr @arc4_count, align 4
  %17 = icmp slt i32 %14, 2
  br i1 %17, label %18, label %20

18:                                               ; preds = %.lr.ph.i.i
  %19 = tail call fastcc i32 @arc4_stir()
  %.pre.i.i = load i32, ptr @arc4_count, align 4
  br label %20

20:                                               ; preds = %18, %.lr.ph.i.i
  %21 = phi i32 [ %.pre.i.i, %18 ], [ %16, %.lr.ph.i.i ]
  %22 = load i8, ptr @rs, align 1
  %23 = add i8 %22, 1
  store i8 %23, ptr @rs, align 1
  %24 = zext i8 %23 to i64
  %25 = getelementptr inbounds nuw [256 x i8], ptr getelementptr inbounds nuw (i8, ptr @rs, i64 2), i64 0, i64 %24
  %26 = load i8, ptr %25, align 1
  %27 = load i8, ptr getelementptr inbounds nuw (i8, ptr @rs, i64 1), align 1
  %28 = add i8 %27, %26
  store i8 %28, ptr getelementptr inbounds nuw (i8, ptr @rs, i64 1), align 1
  %29 = zext i8 %28 to i64
  %30 = getelementptr inbounds nuw [256 x i8], ptr getelementptr inbounds nuw (i8, ptr @rs, i64 2), i64 0, i64 %29
  %31 = load i8, ptr %30, align 1
  store i8 %31, ptr %25, align 1
  store i8 %26, ptr %30, align 1
  %.narrow.i.i.i = add i8 %31, %26
  %32 = zext i8 %.narrow.i.i.i to i64
  %33 = getelementptr inbounds nuw [256 x i8], ptr getelementptr inbounds nuw (i8, ptr @rs, i64 2), i64 0, i64 %32
  %34 = load i8, ptr %33, align 1
  %35 = getelementptr inbounds nuw i8, ptr %0, i64 %15
  store i8 %34, ptr %35, align 1
  %.not5.i.i = icmp eq i64 %15, 0
  br i1 %.not5.i.i, label %._crit_edge.i.i, label %.lr.ph.i.i, !llvm.loop !11

._crit_edge.i.i:                                  ; preds = %20, %arc4_stir_if_needed.exit.i.i
  %36 = load ptr, ptr @arc4rand_lock, align 8
  %.not6.i.i = icmp eq ptr %36, null
  br i1 %.not6.i.i, label %ev_arc4random_buf.exit, label %37

37:                                               ; preds = %._crit_edge.i.i
  %38 = load ptr, ptr getelementptr inbounds nuw (i8, ptr @evthread_lock_fns_, i64 32), align 8
  %39 = tail call i32 %38(i32 noundef 0, ptr noundef nonnull %36) #7
  br label %ev_arc4random_buf.exit

ev_arc4random_buf.exit:                           ; preds = %._crit_edge.i.i, %37
  ret void
}